; Function Attrs: nounwind sspstrong uwtable
define internal noundef i64 @ossl_sslctx_set_tmp_dh(i64 noundef %0, i64 noundef returned %1) #0 {
  %3 = icmp eq i64 %0, 0
  %4 = and i64 %0, 7
  %5 = icmp ne i64 %4, 0
  %6 = or i1 %3, %5
  br i1 %6, label %RB_OBJ_FROZEN.exit.thread.i, label %RB_FL_ABLE.exit.i.i, !prof !17

RB_FL_ABLE.exit.i.i:                              ; preds = %2
  %7 = inttoptr i64 %0 to ptr
  %8 = load i64, ptr %7, align 8, !tbaa !18
  %9 = and i64 %8, 31
  %.not.i.i = icmp eq i64 %9, 27
  %10 = and i64 %8, 2048
  %11 = icmp ne i64 %10, 0
  %or.cond.i = or i1 %.not.i.i, %11
  br i1 %or.cond.i, label %RB_OBJ_FROZEN.exit.thread.i, label %rbimpl_RB_TYPE_P_fastpath.exit.i, !prof !19

RB_OBJ_FROZEN.exit.thread.i:                      ; preds = %RB_FL_ABLE.exit.i.i, %2
  tail call void @rb_error_frozen_object(i64 noundef %0) #10
  unreachable

rbimpl_RB_TYPE_P_fastpath.exit.i:                 ; preds = %RB_FL_ABLE.exit.i.i
  %12 = icmp ne i64 %9, 5
  %13 = and i64 %8, 49152
  %.not.i = icmp eq i64 %13, 0
  %or.cond8.i = or i1 %12, %.not.i
  br i1 %or.cond8.i, label %rb_check_frozen_inline.exit, label %14, !prof !20

14:                                               ; preds = %rbimpl_RB_TYPE_P_fastpath.exit.i
  tail call void @rb_str_modify(i64 noundef %0) #9
  br label %rb_check_frozen_inline.exit

rb_check_frozen_inline.exit:                      ; preds = %rbimpl_RB_TYPE_P_fastpath.exit.i, %14
  %15 = tail call ptr @rb_check_typeddata(i64 noundef %0, ptr noundef nonnull @ossl_sslctx_type) #9
  %16 = tail call ptr @GetPKeyPtr(i64 noundef %1) #9
  %17 = tail call i32 @EVP_PKEY_get_base_id(ptr noundef %16) #9
  %.not = icmp eq i32 %17, 28
  br i1 %.not, label %22, label %18

18:                                               ; preds = %rb_check_frozen_inline.exit
  %19 = load i64, ptr @eSSLError, align 8, !tbaa !10
  %20 = tail call i32 @EVP_PKEY_get_base_id(ptr noundef %16) #9
  %21 = tail call ptr @OBJ_nid2sn(i32 noundef %20) #9
  tail call void (i64, ptr, ...) @rb_raise(i64 noundef %19, ptr noundef nonnull @.str.199, ptr noundef %21) #10
  unreachable

22:                                               ; preds = %rb_check_frozen_inline.exit
  %23 = tail call i32 @SSL_CTX_set0_tmp_dh_pkey(ptr noundef %15, ptr noundef %16) #9
  %.not8 = icmp eq i32 %23, 0
  br i1 %.not8, label %24, label %26

24:                                               ; preds = %22
  %25 = load i64, ptr @eSSLError, align 8, !tbaa !10
  tail call void (i64, ptr, ...) @ossl_raise(i64 noundef %25, ptr noundef nonnull @.str.200) #10
  unreachable

26:                                               ; preds = %22
  %27 = tail call i32 @EVP_PKEY_up_ref(ptr noundef %16) #9
  ret i64 %1
}